; Function Attrs: nounwind uwtable
define range(i32 0, 2) i32 @tls_construct_key_update(ptr noundef %0, ptr noundef %1) local_unnamed_addr #0 {
  %3 = getelementptr inbounds nuw i8, ptr %0, i64 2980
  %4 = load i32, ptr %3, align 4, !tbaa !158
  %5 = sext i32 %4 to i64
  %6 = tail call i32 @WPACKET_put_bytes__(ptr noundef %1, i64 noundef %5, i64 noundef 1) #11
  %.not = icmp eq i32 %6, 0
  br i1 %.not, label %7, label %8

7:                                                ; preds = %2
  tail call void @ERR_new() #11
  tail call void @ERR_set_debug(ptr noundef nonnull @.str, i32 noundef 695, ptr noundef nonnull @__func__.tls_construct_key_update) #11
  tail call void (ptr, i32, i32, ptr, ...) @ossl_statem_fatal(ptr noundef nonnull %0, i32 noundef 80, i32 noundef 786691, ptr noundef null) #11
  br label %9

8:                                                ; preds = %2
  store i32 -1, ptr %3, align 4, !tbaa !158
  br label %9

9:                                                ; preds = %8, %7
  %.0 = phi i32 [ 1, %8 ], [ 0, %7 ]
  ret i32 %.0
}